; Function Attrs: nounwind uwtable
define dso_local range(i32 -2, 2) i32 @Curl_resolv_timeout(ptr noundef %0, ptr noundef %1, i32 noundef %2, ptr noundef writeonly captures(none) initializes((0, 8)) %3, i64 noundef %4) local_unnamed_addr #0 {
  store ptr null, ptr %3, align 8
  %6 = icmp slt i64 %4, 0
  br i1 %6, label %17, label %7

7:                                                ; preds = %5
  %8 = icmp ne i64 %4, 0
  %9 = icmp ne ptr %0, null
  %or.cond = and i1 %9, %8
  br i1 %or.cond, label %10, label %15

10:                                               ; preds = %7
  %11 = getelementptr inbounds nuw i8, ptr %0, i64 2642
  %12 = load i64, ptr %11, align 2
  %13 = and i64 %12, 268435456
  %.not = icmp eq i64 %13, 0
  br i1 %.not, label %15, label %14

14:                                               ; preds = %10
  tail call void (ptr, ptr, ...) @Curl_infof(ptr noundef nonnull %0, ptr noundef nonnull @.str.6) #12
  br label %15

15:                                               ; preds = %14, %10, %7
  %16 = tail call i32 @Curl_resolv(ptr noundef %0, ptr noundef %1, i32 noundef %2, i1 noundef zeroext true, ptr noundef nonnull %3)
  br label %17

17:                                               ; preds = %5, %15
  %.0 = phi i32 [ %16, %15 ], [ -2, %5 ]
  ret i32 %.0
}